target datalayout = "e-m:e-p270:32:32-p271:32:32-p272:64:64-i64:64-i128:128-f80:128-n8:16:32:64-S128"
target triple = "x86_64-pc-linux-gnu"

%struct.ULocaleData = type { i8, ptr, ptr }

; Function Attrs: mustprogress uwtable
define void @ulocdata_close_77(ptr noundef %0) #1 {
  %2 = alloca ptr, align 8
  store ptr %0, ptr %2, align 8, !tbaa !23
  %3 = load ptr, ptr %2, align 8, !tbaa !23
  %4 = icmp ne ptr %3, null
  br i1 %4, label %5, label %13

5:                                                ; preds = %1
  %6 = load ptr, ptr %2, align 8, !tbaa !23
  %7 = getelementptr inbounds nuw %struct.ULocaleData, ptr %6, i32 0, i32 2
  %8 = load ptr, ptr %7, align 8, !tbaa !25
  call void @ures_close_77(ptr noundef %8)
  %9 = load ptr, ptr %2, align 8, !tbaa !23
  %10 = getelementptr inbounds nuw %struct.ULocaleData, ptr %9, i32 0, i32 1
  %11 = load ptr, ptr %10, align 8, !tbaa !29
  call void @ures_close_77(ptr noundef %11)
  %12 = load ptr, ptr %2, align 8, !tbaa !23
  call void @uprv_free_77(ptr noundef %12)
  br label %13

13:                                               ; preds = %5, %1
  ret void
}