; Function Attrs: mustprogress uwtable
define void @ulocdata_close_77(ptr noundef %0) local_unnamed_addr #1 {
  %.not = icmp eq ptr %0, null
  br i1 %.not, label %7, label %2

2:                                                ; preds = %1
  %3 = getelementptr inbounds nuw i8, ptr %0, i64 16
  %4 = load ptr, ptr %3, align 8, !tbaa !15
  tail call void @ures_close_77(ptr noundef %4)
  %5 = getelementptr inbounds nuw i8, ptr %0, i64 8
  %6 = load ptr, ptr %5, align 8, !tbaa !19
  tail call void @ures_close_77(ptr noundef %6)
  tail call void @uprv_free_77(ptr noundef nonnull %0)
  br label %7

7:                                                ; preds = %2, %1
  ret void
}